(dp0
S'spiral+core'
p1
(dp2
S'b_max'
p3
cnumpy.core.multiarray
scalar
p4
(cnumpy
dtype
p5
(S'f8'
p6
I0
I1
tp7
Rp8
(I3
S'<'
p9
NNNI-1
I-1
I0
tp10
bS'\x00\x00\x00\x00\x800\xe3@'
p11
tp12
Rp13
sS'spline_type'
p14
S'cubic'
p15
sS'theta_nat_30_GHz'
p16
g4
(g8
S'\xee|?5^vb@'
p17
tp18
Rp19
sS'N_ant'
p20
g4
(g5
(S'i8'
p21
I0
I1
tp22
Rp23
(I3
S'<'
p24
NNNI-1
I-1
I0
tp25
bS'\xa8\x00\x00\x00\x00\x00\x00\x00'
p26
tp27
Rp28
sS'spline_params'
p29
((lp30
(lp31
F89560144.84557521
aF89560144.84557554
aF-1638199.5678108628
aF39090.85119606719
aF-3662.1514726391133
aF444.9114721187809
aF-127.87099717786128
aF102.84272129711158
aF147.9122450080578
aF-1389.6469102764559
aF-12.454407561808106
aF-1.7194333532000314
aF-0.7556084303910968
aF0.6810222976074876
aF1.259031029070989
aF3.3813784373734883
aF6.424260259148062
aF-0.6457044781027651
aF-2.7449920210992445
aF-2.744992021099201
aa(lp32
F-186854.75535478946
aF-126322.99484879771
aF29853.918630963657
aF-2205.5198141934507
aF522.3248224082855
aF-83.93678786397004
aF29.574801163015636
aF-2.4841203003012744
aF12.593193361291155
aF19.346618357409795
aF4.225076914634556
aF0.6866580324330637
aF0.2910498628877757
aF0.042516144617627816
aF0.2982990377586824
aF0.7522661165683092
aF1.8371905791665117
aF3.7057921329658163
aF3.511031217157961
aF2.519137098081143
aa(lp33
F-37.50737061180252
aF-108.06405481478876
aF-164.13900718682586
aF16.219999410050633
aF-22.932336666973296
aF1.259074468677548
aF-3.364104058429348
aF-1.1001087576093334
aF-0.6060933541332975
aF-0.11998727860043318
aF-0.03448825380096623
aF0.43066904345361456
aF0.5056528998304844
aF0.5422249287630433
aF0.5848934746050146
aF0.7111604167207891
aF0.9881051564744798
aF1.5255276606880446
aF2.251120235701895
aF2.9774476036206505
aa(lp34
F2.4035490975664806
aF2.3866389356624653
aF2.2987318488925688
aF2.0436450325929902
aF1.7195895733470319
aF1.4292859341633097
aF1.2029460536506702
aF1.0537238717455228
aF1.0060329864434847
aF1.000246998293371
aF1.0
aF1.0240489792186522
aF1.0603417112954212
aF1.1182840715423996
aF1.1881709913967111
aF1.2649640860859925
aF1.353764765002829
aF1.4726924039241034
aF1.6628760644472331
aF1.9801621766538178
aa(lp35
F1.8472763793281994
aF1.8475016721025332
aF1.8480829459632409
aF1.8546062534354797
aF1.8778669785850357
aF1.9330496232500451
aF2.0180939493991064
aF2.1016649497845568
aF2.1505334662643123
aF2.16575290712433
aF2.1693800974393547
aF2.264083354489552
aF2.34077687075932
aF2.450416426678297
aF2.5756119814786076
aF2.6958015209809556
aF2.802752427018448
aF2.899707898850837
aF3.0002497217293764
aF3.1206986594618806
aF3.262856068463612
atp36
sS'b_min'
p37
g4
(g8
S'33333\xb3C@'
p38
tp39
Rp40
ssS'core'
p41
(dp42
g3
g4
(g8
S'\x00\x00\x00\x00\x00\xcc\xb0@'
p43
tp44
Rp45
sg14
g15
sg16
g4
(g8
S'-\xb2\x9d\xef\xa7\xac\x86@'
p46
tp47
Rp48
sg20
g4
(g23
S'r\x00\x00\x00\x00\x00\x00\x00'
p49
tp50
Rp51
sg29
((lp52
(lp53
F10135316.241566746
aF10135316.241178032
aF-348085.39830251696
aF-309663.2627213868
aF-36859.16848009165
aF-3822.872744606671
aF239.80593269540327
aF-198.13190962163796
aF651.0731854269134
aF-2387.202472477883
aF-8.442772751238282
aF2.6707694711462424
aF-0.9524635981989645
aF2.252305149840817
aF2.2267613287107157
aF2.904964528789214
aF6.1231147685854
aF11.132198949333793
aF11.13219894933486
aa(lp54
F1707.734284578518
aF2107.0100235473496
aF4608.231901435016
aF4079.2046090042645
aF1462.5581033701562
aF350.2185106959453
aF-6.162816370130444
aF26.746104699937522
aF7.903651189837328
aF28.320978589539173
aF7.076079802731014
aF1.219589505019744
aF1.6563639904794278
aF1.4843743132903702
aF1.9136307920765339
aF2.3453638868040483
aF2.9058241605119672
aF4.063463156733417
aF6.095619434546801
aa(lp55
F-52.07750979713028
aF-52.027416479330306
aF-51.47501437634719
aF-47.07389993939722
aF-31.464649739732476
aF-13.229266399594358
aF-2.537915233427507
aF-1.5963569166746876
aF-0.4979533064465558
aF-0.11929125395986455
aF-0.014285927772353558
aF1.9038638019965322
aF2.0606404814982424
aF2.249685175007476
aF2.4655552295203544
aF2.740805347173774
aF3.078512544757233
aF3.5177181386001366
aF4.135890210403022
aa(lp56
F1.6705315263300204
aF1.669847987895562
aF1.6655880634422295
aF1.6406479174135402
aF1.5334996888090269
aF1.32746322335499
aF1.1398397651090117
aF1.0338040844009162
aF1.0037648775023529
aF1.000166968675575
aF1.0
aF1.2706422704099842
aF1.3784843376435192
aF1.5083099487446228
aF1.6577972085397576
aF1.8257348859792648
aF2.012470547557539
aF2.2195520319694877
aF2.4511559611062457
aa(lp57
F2.7252705524047967
aF2.7252836839055616
aF2.7253659448440586
aF2.7258725516470736
aF2.7286892096329542
aF2.7387485755794487
aF2.76982305375984
aF2.8155668776652423
aF2.847267060885069
aF2.857720226446537
aF2.860686725103681
aF3.0919097474554436
aF3.1464226871629406
aF3.206613850903748
aF3.2701423177009064
aF3.334770272983012
aF3.3990809003192526
aF3.4621010591748216
aF3.5229502614771513
aF3.5814200534049117
atp58
sg37
g4
(g8
S'33333\xb3C@'
p59
tp60
Rp61
ssS'mid+lba'
p62
(dp63
g3
g4
(g8
S'\x00\x00\x00\x00\xce\xe4`A'
p64
tp65
Rp66
sg14
g15
sg16
g4
(g8
S'X9\xb4\xc8v\xbe\xdf?'
p67
tp68
Rp69
sg20
g4
(g23
S'L\x00\x00\x00\x00\x00\x00\x00'
p70
tp71
Rp72
sg29
((lp73
(lp74
F-10576222.383746821
aF-10576222.383746784
aF-3503163.237229452
aF-129117.13800711794
aF108.55235271127455
aF-526.2954735297999
aF676.0496648458127
aF-40050.14222491458
aF2501.6698180762955
aF77456.47155951858
aF-25.437893954949985
aF8.201041932249186
aF-0.5736857850985513
aF2.615616971727514
aF2.615616971727558
aa(lp75
F61524.11045016183
aF57558.775350813026
aF35571.20812408143
aF4259.959532901148
aF45.88672245533811
aF55.755712271697874
aF5.729228405125946
aF41.72843278646569
aF-423.92870274430453
aF-412.1157061833328
aF20.72862831301128
aF-5.607828647989829
aF2.608685600392599
aF2.305384274425683
aF3.7079063404758044
aa(lp76
F-250.81087191180148
aF-235.9283196587425
aF-171.39041257560208
aF-52.720179633873144
aF-5.8760247557980705
aF-2.7957655439160005
aF-0.8476359300974005
aF-0.0052727460818545405
aF-1.4865349257780154
aF-2.8024812663792615
aF-3.531534526187994
aF1.6867733822026933
aF0.6851729438235424
aF1.551177731136617
aF2.6259748526995224
aa(lp77
F1.8958926306773158
aF1.8654874933734258
aF1.726113968421335
aF1.4385860803499229
aF1.2029736894620218
aF1.0700644297038078
aF1.0207148695147683
aF1.0112551106037397
aF1.009529999523991
aF1.0061496340407816
aF1.0
aF1.2044555580340117
aF1.4477934330755626
aF1.6464190078721281
aF2.012257025252753
aa(lp78
F-0.40614275957966667
aF-0.4060177831638454
aF-0.4053247957426618
aF-0.40234546473324495
aF-0.3914662665222543
aF-0.36116141186037803
aF-0.3294767490409353
aF-0.3117269661214856
aF-0.3078513482945815
aF-0.3062773334138539
aF-0.304414591128708
aF0.0406933412554543
aF0.3746555506210878
aF0.5508851951670146
aF0.7296221281367034
aF0.9814129372697965
atp79
sg37
g4
(g8
S'333333B@'
p80
tp81
Rp82
ssS'spiral'
p83
(dp84
g3
g4
(g8
S'\x00\x00\x00\x00\x800\xe3@'
p85
tp86
Rp87
sg14
g15
sg16
g4
(g8
S'\xb6\xf3\xfd\xd4x\tS@'
p88
tp89
Rp90
sg20
g4
(g23
S'6\x00\x00\x00\x00\x00\x00\x00'
p91
tp92
Rp93
sg29
((lp94
(lp95
F-87803575.4413919
aF-87803575.44164327
aF1232927.8072270397
aF-482648.6480361931
aF-88485.98832084361
aF-9200.578443718485
aF264.80042802398384
aF-260.0402295955025
aF569.1274097834219
aF-2153.1846202336765
aF-56.05481992578146
aF-10.987798171324913
aF-14.65604599335324
aF-8.28778463896953
aF-2.629651223459428
aF-1.141247446088236
aF2.3232497464301742
aF3.8170347333646912
aF5.573078335484311
aF5.573078335484881
aa(lp96
F17111.40448293699
aF15286.163563502303
aF3710.828275515741
aF4721.101929506587
aF2416.9003042309337
aF620.0420370054878
aF0.4396851279537497
aF31.164106807344254
aF9.30517846452127
aF25.213660949262135
aF11.551118449222901
aF6.5965193720979975
aF6.0430489803918706
aF4.939223562392027
aF4.04935861033667
aF3.668785191287158
aF3.4610875288235734
aF3.960001472076531
aF4.873584961158047
aF6.3060939625561465
aa(lp97
F-51.99275177401979
aF-51.76826066193389
aF-50.93345581906459
aF-48.63038587220316
aF-37.27126268454511
aF-16.714505407708792
aF-2.785963244747286
aF-1.5636487173706293
aF-0.42970211198190955
aF-0.10807386567134078
aF-0.030313021521980864
aF0.5043675508210874
aF0.7165916542605255
aF0.9923029337698949
aF1.3140062836442243
aF1.6863396117418141
aF2.118865704923371
aF2.650087797649206
aF3.354842428622811
aF4.312720626086987
aa(lp98
F1.5391371693935374
aF1.5387776905799195
aF1.5365248511546712
aF1.5229150177845083
aF1.455537378037184
aF1.2865466691759566
aF1.119711251690387
aF1.0279381782890815
aF1.0028717024684428
aF1.0001361635994965
aF1.0
aF1.0077003044411106
aF1.017976540397692
aF1.0395434937891652
aF1.0810051303013113
aF1.153523044049378
aF1.2690697886059041
aF1.4393311546303023
aF1.6779024286905635
aF2.004629262336082
aa(lp99
F1.7723982075497373
aF1.7724051368078768
aF1.77244908086228
aF1.772722217604504
aF1.7743135764771547
aF1.7810824759052772
aF1.8035304250810726
aF1.842206623490399
aF1.8702265550946038
aF1.879544024968233
aF1.881659115699678
aF1.9111219349165622
aF1.9279123899005437
aF1.9530175107610281
aF1.9888077325882674
aF2.0370490374495804
aF2.0977129665491225
aF2.1692957346120583
aF2.2490769917832236
aF2.3347572876128595
aF2.4251738096922772
atp100
sg37
g4
(g8
S'\x00\x00\x00\x00\x00X\x89@'
p101
tp102
Rp103
ssS'mid'
p104
(dp105
g3
g4
(g8
S'\x00\x00\x00\x00\x0cM0A'
p106
tp107
Rp108
sg14
g15
sg16
g4
(g8
S'\x1dZd;\xdfO\x07@'
p109
tp110
Rp111
sg20
g4
(g23
S'.\x00\x00\x00\x00\x00\x00\x00'
p112
tp113
Rp114
sg29
((lp115
(lp116
F985464890.1170876
aF985464890.1169783
aF-301867196.6406273
aF10680942.55564236
aF-570724.7238283863
aF19080.589029456623
aF-3179.6112442323715
aF1414.2513614827997
aF-1400.8047008558033
aF652.8728455971344
aF-92.8760078684802
aF31.95920565099746
aF-35.545964622398884
aF-12.6154380499151
aF-1.8489271503242186
aF-5.868366393350219
aF1.761713327756203
aF2.975159546470055
aF0.31332015722706547
aF0.5466398870289119
aF6.374376922087042
aF6.374376922087314
aa(lp117
F-1042125.2528381031
aF-7800.2644255938585
aF13246.509188868971
aF-27130.606165478854
aF11952.80442430516
aF-811.4831584542251
aF322.53147082800353
aF-76.0893861820149
aF50.402754711782535
aF7.272528831156568
aF11.941130080086527
aF5.57734355782723
aF6.895925772351603
aF4.685474856250337
aF3.5073064474003335
aF3.261532206421689
aF2.25404976329203
aF2.6188123489339366
aF3.308414338606332
aF3.3872527015421094
aF3.5357049542840864
aF5.340379723509893
aa(lp118
F302.83998090914565
aF-64.4872265738602
aF-64.44845438903245
aF-65.06749016751853
aF-83.58022142415793
aF-0.5214818066348061
aF-10.20808644838819
aF0.09054729843809864
aF-0.6752658838364308
aF-0.08333278390313835
aF-0.03753473272340684
aF0.36258233010793395
aF0.5341242563513595
aF0.7741901156894181
aF1.0292341359442443
aF1.3291569284960116
aF1.6447957068577839
aF1.981104260492856
aF2.4390547505560876
aF3.0006479708156064
aF3.6273424876454086
aF4.46499016486505
aa(lp119
F1.5849201325878217
aF1.605514601619759
aF1.605055472924054
aF1.6021815542907873
aF1.5018360453326722
aF1.3065802924205319
aF1.1261201391098326
aF1.0307393123377104
aF1.0032841227620841
aF1.000148471968639
aF1.0
aF1.0042652796047153
aF1.0103898107420584
aF1.0241078483431993
aF1.0523687415833556
aF1.1046985428573952
aF1.190343251473689
aF1.315177382981506
aF1.4852468663049163
aF1.7132795854807448
aF2.0130732722829343
aF2.3922365392128473
aa(lp120
F0.35132302676449606
aF0.35167288701785987
aF0.35168000608549504
aF0.35172459204449036
aF0.35294431618981364
aF0.36039933320580303
aF0.3802102979429946
aF0.42199956361009916
aF0.45181325028061536
aF0.46207645253245344
aF0.46446007198730554
aF0.48729979370629145
aF0.5010525574527123
aF0.5217811262188408
aF0.5529114604487048
aF0.5972208032903186
aF0.6544475438400841
aF0.7234641804469928
aF0.8007263663232139
aF0.8846004922156913
aF0.9751245930387542
aF1.0694958961106207
aF1.1632004003280987
atp121
sg37
g4
(g8
S'ffff\xc6\xbe\xd0@'
p122
tp123
Rp124
ssS'lba'
p125
(dp126
g3
g4
(g8
S'\x00\x00\x00\x00\xce\xe4`A'
p127
tp128
Rp129
sg14
g15
sg16
g4
(g8
S'\x87\x16\xd9\xce\xf7S\xd3?'
p130
tp131
Rp132
sg20
g4
(g23
S'\x1e\x00\x00\x00\x00\x00\x00\x00'
p133
tp134
Rp135
sg29
((lp136
(lp137
F-10616056.138927255
aF-10616056.13892711
aF-207394.56766679973
aF-3937.8331302630336
aF801.1132086066516
aF-3241.613778546907
aF-10841.197184208822
aF12878.2203514766
aF-4554.849060920348
aF11212.614097103724
aF-450.21580651824115
aF264.3601520427001
aF-26.404138681496224
aF-2.9797136461142704
aF4.055171578331898
aF-5.877437227500589
aF3.8055440691481737
aF0.014907954624499852
aF3.051337089759593
aF-11.593609421682006
aF2.3147361878569828
aF-0.747678550258411
aF-3.101984500991221
aF5.110042409473044
aF5.110042409473002
aa(lp138
F105032.27368178562
aF87646.27015051187
aF6099.837693773293
aF302.2217551871671
aF54.77633466932591
aF94.9478012196638
aF-37.33793338823907
aF-219.27504050344382
aF75.93010954131168
aF-54.80163954883112
aF77.12852184016418
aF-20.03932899873132
aF4.606039444416081
aF0.8329245366990115
aF0.2876566306394088
aF1.2453507195794309
aF-0.4753975316048679
aF0.9533666864616822
aF0.9597470377400268
aF2.183921955056985
aF-1.7068196188301274
aF-0.8658128938357772
aF-1.1688997921530389
aF-2.512395640231619
aF-0.4130211549717018
aa(lp139
F-416.3592947118547
aF-311.17554286684026
aF-71.14099672389685
aF-11.485493498597389
aF-4.007815670342532
aF-1.50519887327177
aF-0.7215394361955042
aF-2.157033484955071
aF-3.2523235871049234
aF-3.0501828355108787
aF-2.962615114653541
aF1.1444775982308328
aF0.6648804723442246
aF0.9239539497666995
aF0.9923069325531765
aF1.1129883923670296
aF1.1881286023155542
aF1.2479452989902178
aF1.5208720217427991
aF1.941277963588703
aF1.994648799970482
aF1.6830796377996713
aF1.4081420741679982
aF0.8766752956826929
aF0.4760559604944346
aa(lp140
F2.173238300712027
aF1.9755201905375013
aF1.575167751272477
aF1.2741033344023847
aF1.12993580194298
aF1.0819906309469032
aF1.0709252655684616
aF1.0638227805183549
aF1.0402839509005772
aF1.0121295639927057
aF1.0
aF1.0184171473292447
aF1.0425638805903639
aF1.0818310517051217
aF1.1406130305993292
aF1.222490434030519
aF1.337505533368849
aF1.4862104120804738
aF1.683689897810223
aF1.9115394043039944
aF2.1397993155220174
aF2.3604465747891554
aF2.5702172839673234
aF2.73981323427011
aF2.825875833132757
aa(lp141
F-0.6101377006074411
aF-0.6095917978320051
aF-0.6070313230383033
aF-0.5977131491442783
aF-0.5767671608022658
aF-0.5600523086362377
aF-0.5464494404718917
aF-0.5408554362912399
aF-0.5332144956957249
aF-0.5236472742326477
aF-0.5197251986058447
aF-0.4477835138759175
aF-0.41670801800067103
aF-0.3690751455782727
aF-0.3080773483827096
aF-0.2293553123816267
aF-0.13176469113075795
aF-0.006617082614923192
aF0.13604392038763824
aF0.26977490250094804
aF0.38163944880323425
aF0.5027485308959375
aF0.6378720623531865
aF0.7822415616902807
aF0.9191859232066079
aF1.035210740213238
atp142
sg37
g4
(g8
S'333333B@'
p143
tp144
Rp145
ssS'main+lba'
p146
(dp147
g3
g4
(g8
S'\x00\x00\x00\x00\xce\xe4`A'
p148
tp149
Rp150
sg14
g15
sg16
g4
(g8
S'\x96C\x8bl\xe7\xfb\xed?'
p151
tp152
Rp153
sg20
g4
(g23
S'\xf4\x00\x00\x00\x00\x00\x00\x00'
p154
tp155
Rp156
sg29
((lp157
(lp158
F-813.2304663589563
aF-813.2304663589697
aF352.13896378198876
aF-434.7827395373626
aF57.17398655148799
aF-31.752493010895986
aF45.74763480515452
aF182.77221638803147
aF164.35155893751005
aF-2505.808638927511
aF-0.7633942172429368
aF0.9069340336003074
aF-0.4626918532148346
aF-0.12620482252915055
aF0.01404424398357131
aF-0.07150786039252736
aF0.7655952910544315
aF0.24551096634005676
aF-0.22755480234474448
aF2.1622241293725195
aF3.2331335046623946
aF3.2331335046623417
aa(lp159
F199.81917691835366
aF124.94276269691011
aF13.31189120306452
aF60.521359676980154
aF-2.631689173720572
aF5.435071383597554
aF1.2628914259245048
aF6.383615764262458
aF23.844775244198573
aF31.2562920544478
aF0.37682957806246936
aF-0.5095959091365625
aF0.39956434430793814
aF0.10373809042809436
aF-0.0057109629601853375
aF0.009820537681596197
aF-0.05745811148659179
aF0.41853974271636857
aF0.5546883265720142
aF0.38735186912825714
aF1.844645669209979
aF3.4727751462707914
aa(lp160
F-24.86044907689032
aF-14.893200955593912
aF-8.567201073488475
aF-5.267719061886806
aF-2.4648561936157485
aF-2.3330117750743544
aF-2.0396478683774553
aF-1.7543460115067067
aF-0.791722029496919
aF0.03654815178739599
aF0.1664880811296078
aF0.11510027604902134
aF0.07833305753759803
aF0.18559672398720917
aF0.21393419449144108
aF0.21544911791244611
aF0.20050907450250133
aF0.2753415104146745
aF0.45524334993664195
aF0.6861586686405199
aF1.1875985410127252
aF2.0801742789808935
aa(lp161
F2.9145556266767687
aF2.3162720172396325
aF1.818495440219458
aF1.493652724111066
aF1.3311317149462822
aF1.2153349257054509
aF1.1209098705519154
aF1.0489421389888878
aF1.0054510899307858
aF0.9994961522865715
aF1.0
aF1.076627761091758
aF1.0920267283017653
aF1.122390452070213
aF1.1816625899250388
aF1.2604531814564306
aF1.3267822420483195
aF1.3726837206967513
aF1.439432902434383
aF1.5810003408136084
aF1.7792204470581814
aF2.045836766260574
aa(lp162
F-0.37672859252586355
aF-0.34603765585667035
aF-0.30028151164265915
aF-0.25559321778760097
aF-0.20717589490590937
aF-0.16014541219938663
aF-0.11634643704236712
aF-0.07903504116257418
aF-0.047190012370259486
aF-0.03215817683801632
aF-0.028050459273757065
aF0.35900403462431163
aF0.693155589850203
aF0.9062752949155441
aF1.1953531373067592
aF1.563985787569055
aF1.877604685775375
aF2.084849888632436
aF2.2697005369018703
aF2.5148231120932873
aF2.739482800896321
aF2.907341574715686
aF3.111796729082135
atp163
sg37
g4
(g8
S'333333B@'
p164
tp165
Rp166
ssS'sba'
p167
(dp168
g3
g4
(g8
S'fffff\xe6M@'
p169
tp170
Rp171
sg14
g15
sg16
g4
(g8
S'H\xe1z\x14\xaeGA@'
p172
tp173
Rp174
sg20
g4
(g23
S'\x13\x00\x00\x00\x00\x00\x00\x00'
p175
tp176
Rp177
sg29
((lp178
(lp179
F10135316.241566746
aF10135316.241178032
aF-348085.39830251696
aF-309663.2627213868
aF-36859.16848009165
aF-3822.872744606671
aF239.80593269540327
aF-198.13190962163796
aF651.0731854269134
aF-2387.202472477883
aF-8.442772751238282
aF2.6707694711462424
aF-0.9524635981989645
aF2.252305149840817
aF2.2267613287107157
aF2.904964528789214
aF6.1231147685854
aF11.132198949333793
aF11.13219894933486
aa(lp180
F1707.734284578518
aF2107.0100235473496
aF4608.231901435016
aF4079.2046090042645
aF1462.5581033701562
aF350.2185106959453
aF-6.162816370130444
aF26.746104699937522
aF7.903651189837328
aF28.320978589539173
aF7.076079802731014
aF1.219589505019744
aF1.6563639904794278
aF1.4843743132903702
aF1.9136307920765339
aF2.3453638868040483
aF2.9058241605119672
aF4.063463156733417
aF6.095619434546801
aa(lp181
F-52.07750979713028
aF-52.027416479330306
aF-51.47501437634719
aF-47.07389993939722
aF-31.464649739732476
aF-13.229266399594358
aF-2.537915233427507
aF-1.5963569166746876
aF-0.4979533064465558
aF-0.11929125395986455
aF-0.014285927772353558
aF1.9038638019965322
aF2.0606404814982424
aF2.249685175007476
aF2.4655552295203544
aF2.740805347173774
aF3.078512544757233
aF3.5177181386001366
aF4.135890210403022
aa(lp182
F1.6705315263300204
aF1.669847987895562
aF1.6655880634422295
aF1.6406479174135402
aF1.5334996888090269
aF1.32746322335499
aF1.1398397651090117
aF1.0338040844009162
aF1.0037648775023529
aF1.000166968675575
aF1.0
aF1.2706422704099842
aF1.3784843376435192
aF1.5083099487446228
aF1.6577972085397576
aF1.8257348859792648
aF2.012470547557539
aF2.2195520319694877
aF2.4511559611062457
aa(lp183
F2.7252705524047967
aF2.7252836839055616
aF2.7253659448440586
aF2.7258725516470736
aF2.7286892096329542
aF2.7387485755794487
aF2.76982305375984
aF2.8155668776652423
aF2.847267060885069
aF2.857720226446537
aF2.860686725103681
aF3.0919097474554436
aF3.1464226871629406
aF3.206613850903748
aF3.2701423177009064
aF3.334770272983012
aF3.3990809003192526
aF3.4621010591748216
aF3.5229502614771513
aF3.5814200534049117
atp184
sg37
g4
(g8
S'\xcd\xcc\xcc\xcc\xcc\xcc%@'
p185
tp186
Rp187
ssS'main'
p188
(dp189
g3
g4
(g8
S'\x00\x00\x00\x00\x0cM0A'
p190
tp191
Rp192
sg14
g15
sg16
g4
(g8
S'\xc9v\xbe\x9f\x1a/\x1a@'
p193
tp194
Rp195
sg20
g4
(g23
S'\xd6\x00\x00\x00\x00\x00\x00\x00'
p196
tp197
Rp198
sg29
((lp199
(lp200
F-141.22346558225814
aF-141.2234655822618
aF-195.89040062684575
aF16.73629645027862
aF-45.48124563320966
aF39.710273993395205
aF136.2175455333446
aF345.7978181871128
aF-1432.4927882036263
aF-226.42418258172205
aF6.615282076847852
aF-1.794503069276755
aF0.08798702419065836
aF0.09097312034353147
aF0.2533604687498603
aF1.0705013269268917
aF-0.8471643743024796
aF-0.4642461761648377
aF5.377610413897485
aF2.913302884380563
aF2.913302884380491
aa(lp201
F81.4732246281019
aF63.46104201635436
aF41.76236133408721
aF2.40617806527197
aF6.2068387357196695
aF-2.668607076759405
aF3.385922477254347
aF18.065799225060687
aF32.40591158234726
aF16.964117656726536
aF-0.5236564694852044
aF0.7492797129373708
aF-0.19353828779837845
aF-0.11661378611623739
aF-0.02377995532678235
aF0.16660651918481323
aF0.7471482610745179
aF0.2586570967744624
aF-0.07863627725457856
aF3.359166546837776
aF4.907095907084033
aa(lp202
F-17.32937422991665
aF-11.167550091280894
aF-5.778433818030305
aF-2.8204785434575133
aF-2.168499289730226
aF-1.9383430064542786
aF-1.9018872243178278
aF-1.131285000291454
aF-0.43360371007283766
aF-0.2562062334759598
aF0.1670510771979402
aF0.18152282039545525
aF0.27885023252535035
aF0.18846458020512455
aF0.14070948951531903
aF0.17648492848271646
aF0.3416638586557512
aF0.5349860541346084
aF0.5785834906735184
aF1.2776434421684602
aF2.741685099780897
aa(lp203
F2.77339756573827
aF2.173055869498365
aF1.748589765488787
aF1.490074721392777
aF1.2976198241773882
aF1.1703071810427943
aF1.0701156728345365
aF1.0124786753827093
aF1.001206091345968
aF1.0
aF1.0007841658515282
aF1.0110903085831668
aF1.056222541215474
aF1.1232270001370122
aF1.1774212781173936
aF1.2151561328552223
aF1.2588270792952445
aF1.3460836724625933
aF1.4842228982094097
aF1.6559801294749303
aF2.0038201145498684
aa(lp204
F0.41039833033312123
aF0.45291294251763353
aF0.5041288897466202
aF0.57109862238432
aF0.6467955899848272
aF0.7118439829279788
aF0.7626665110812789
aF0.7985891393308898
aF0.8124123539407702
aF0.8160055759690139
aF0.8417504322630922
aF0.9058916216906044
aF1.0810223708615037
aF1.3724460301632588
aF1.7125971665241873
aF1.9630788556514165
aF2.1438482849792235
aF2.3360546537067646
aF2.5782346229746795
aF2.791328206648199
aF2.9684386801872824
aF3.1878191526475232
atp205
sg37
g4
(g8
S'33333\xb3C@'
p206
tp207
Rp208
ssS'spiral+mid'
p209
(dp210
g3
g4
(g8
S'\x00\x00\x00\x00\x0cM0A'
p211
tp212
Rp213
sg14
g15
sg16
g4
(g8
S'\x10X9\xb4\xc8v\x11@'
p214
tp215
Rp216
sg20
g4
(g23
S'd\x00\x00\x00\x00\x00\x00\x00'
p217
tp218
Rp219
sg29
((lp220
(lp221
F-1764853.8716752797
aF-1764853.8716743381
aF-5072.528167251643
aF-39478.88442125426
aF1409.8695627194122
aF-396.43237304253955
aF111.00878567974641
aF35.53675387086608
aF170.6162892741941
aF-1083.2255007261215
aF-65.44835739850895
aF-2.670198492615789
aF-8.860392521634967
aF-2.621031274618694
aF-0.12999444377118127
aF-0.570207434010731
aF0.35026236541630285
aF0.8525428396208092
aF1.4857772444164086
aF5.9411677003856775
aF7.413085018188101
aF2.7794910995085953
aF2.7794910995085043
aa(lp222
F9806.25105488158
aF8716.532430592768
aF2275.7469582021768
aF2208.122532925883
aF-139.4577884022787
aF63.30356688565064
aF-12.472703288386946
aF7.889776236281123
aF12.412167206102325
aF20.579487276997035
aF7.506769423152432
aF2.712885575947312
aF2.4785381508057984
aF0.8958060630482197
aF0.060271966349224125
aF0.0011006520269248032
aF-0.3168279361067547
aF-0.09926588974743372
aF0.36436284187456114
aF0.9928921863066525
aF3.00131688912179
aF5.177533923248386
aF6.058318184655976
aa(lp223
F-78.95348531727494
aF-75.14115417346517
aF-61.76914747230196
aF-41.84357404660849
aF-0.8397419402277176
aF-4.490465755137524
aF-1.2517685522457156
aF-1.53198588726751
aF-0.670780555764924
aF-0.1443489882240938
aF-0.03136429292732055
aF0.218154773053646
aF0.37002822447776834
aF0.5709479485706989
aF0.6725410123902777
aF0.681852944981053
aF0.6231732881429931
aF0.537022416521638
aF0.5850773090774269
aF0.7764641441039566
aF1.2265478414427862
aF2.0268873498386224
aF3.213718721223472
aa(lp224
F2.0869545645722147
aF2.071104495967995
aF1.9894180009771216
aF1.7594216843745865
aF1.4901227921632085
aF1.2847003784216684
aF1.1530371721737867
aF1.05524486471258
aF1.0071680593684145
aF1.0003181688213605
aF1.0
aF1.002756591123759
aF1.0113935716427411
aF1.0403432424930634
aF1.1079823177382964
aF1.2109589616462497
aF1.3340624519810427
aF1.4526154020647133
aF1.5517794067237
aF1.645692105102554
aF1.7542954721526138
aF1.9100044561907128
aF2.1851464519916193
aa(lp225
F0.37919141671169826
aF0.3793972351917771
aF0.3806137259875618
aF0.38505756037326794
aF0.40487896073063884
aF0.4528175220106945
aF0.5165326937329816
aF0.5776764413501374
aF0.6200962881961634
aF0.6360527952519252
aF0.6400755703943375
aF0.6644911760094925
aF0.693745858235
aF0.7532891980247038
aF0.8595494201988355
aF1.011277223853935
aF1.197132738397376
aF1.4041794818680309
aF1.5854523790861945
aF1.7264626027012788
aF1.8391466632597642
aF1.9370014263256659
aF2.042630386193331
aF2.166105016872111
atp226
sg37
g4
(g8
S'\x00\x00\x00\x00\x00X\x89@'
p227
tp228
Rp229
ss.