(dp0
S'BAND_6'
p1
(dp2
S'pwv'
p3
I1
sS'Tsys'
p4
cnumpy.core.multiarray
scalar
p5
(cnumpy
dtype
p6
(S'f8'
p7
I0
I1
tp8
Rp9
(I3
S'<'
p10
NNNI-1
I-1
I0
tp11
bS'X\xfb\x86\xb5oXU@'
p12
tp13
Rp14
sS'elevation'
p15
F45.0
sS'tSpill'
p16
(lp17
F0.5
aF0.4
aF0.4
aF0.3
aF0.3
aF0.2
aF0.2
aF0.2
aF0.2
aF0.1
aF0.2
asS'eta_A'
p18
g5
(g9
S'\xeal\xa9\xce\x96\xea\xe4?'
p19
tp20
Rp21
sS'tSys'
p22
(lp23
F117.9
aF85.8
aF76.6
aF70.0
aF65.7
aF64.2
aF64.6
aF66.2
aF67.4
aF76.8
aF184.0
asS'freq_center'
p24
F93.0
sS'tRx'
p25
(lp26
F46.5
aF43.6
aF46.0
aF45.9
aF45.2
aF45.8
aF47.2
aF48.5
aF47.7
aF47.6
aF69.0
asS'max_bw'
p27
F20.0
sS'antEff'
p28
(lp29
F0.75
aF0.74
aF0.72
aF0.71
aF0.69
aF0.66
aF0.64
aF0.61
aF0.59
aF0.56
aF0.52
asS'freq'
p30
(lp31
F70.0
aF73.8
aF77.5
aF81.5
aF85.5
aF90.0
aF95.0
aF100.0
aF105.0
aF110.6
aF116.0
assS'BAND_4'
p32
(dp33
g3
I6
sg4
g5
(g9
S'Y\xfb\x86\xb5oX@@'
p34
tp35
Rp36
sg15
F45.0
sg16
(lp37
F1.1
aF1.0
aF1.0
aF0.9
aF0.9
aF0.8
aF0.8
aF0.8
aF0.8
aF0.8
aF0.7
asg18
g5
(g9
S'j\x15\x93V1i\xed?'
p38
tp39
Rp40
sg22
(lp41
F31.1
aF36.9
aF40.5
aF36.1
aF32.7
aF30.1
aF29.1
aF29.2
aF30.0
aF31.1
aF32.8
asg24
F27.0
sg25
(lp42
F15.2
aF15.0
aF15.4
aF15.6
aF16.2
aF15.8
aF15.6
aF16.1
aF16.5
aF17.2
aF18.2
asg27
F13.5
sg28
(lp43
F0.92
aF0.92
aF0.92
aF0.92
aF0.92
aF0.92
aF0.92
aF0.92
aF0.92
aF0.92
aF0.91
asg30
(lp44
F20.5
aF21.6
aF22.7
aF23.9
aF25.1
aF26.4
aF27.8
aF29.2
aF30.7
aF32.4
aF34.0
assS'BAND_5'
p45
(dp46
g3
I6
sg4
g5
(g9
S'\x9f\x12\xe4)A\x9eG@'
p47
tp48
Rp49
sg15
F45.0
sg16
(lp50
F1.0
aF1.0
aF0.9
aF0.9
aF0.9
aF0.8
aF0.8
aF0.8
aF0.9
aF0.9
aF0.8
asg18
g5
(g9
S'c\x9cH\xc6\x89d\xec?'
p51
tp52
Rp53
sg22
(lp54
F32.2
aF31.8
aF32.7
aF34.4
aF36.0
aF38.2
aF42.4
aF47.9
aF56.3
aF69.9
aF97.8
asg24
F41.0
sg25
(lp55
F18.7
aF17.9
aF18.0
aF18.5
aF18.8
aF18.9
aF20.2
aF21.7
aF22.9
aF24.3
aF24.9
asg27
F20.0
sg28
(lp56
F0.9
aF0.9
aF0.9
aF0.9
aF0.89
aF0.89
aF0.89
aF0.88
aF0.88
aF0.87
aF0.86
asg30
(lp57
F30.5
aF32.0
aF33.7
aF35.5
aF37.3
aF39.3
aF41.3
aF43.3
aF45.7
aF48.0
aF50.5
assS'BAND_2'
p58
(dp59
g3
I6
sg4
g5
(g9
S'\x8b.\xba\xe8\xa2\x0b6@'
p60
tp61
Rp62
sg15
F45.0
sg16
(lp63
F8.2
aF6.6
aF4.9
aF4.1
aF4.2
aF3.7
aF2.8
aF3.0
aF3.5
aF3.1
aF2.4
asg18
g5
(g9
S'\xdf\x95\x05^Y\xe0\xed?'
p64
tp65
Rp66
sg22
(lp67
F24.8
aF22.9
aF21.0
aF20.5
aF20.9
aF20.5
aF20.2
aF21.4
aF22.7
aF23.7
aF23.9
asg24
F8.0
sg25
(lp68
F10.9
aF10.7
aF10.5
aF10.6
aF10.9
aF11.0
aF11.5
aF12.5
aF13.2
aF14.5
aF15.1
asg27
F8.8
sg28
(lp69
F0.92
aF0.93
aF0.93
aF0.93
aF0.93
aF0.94
aF0.94
aF0.94
aF0.95
aF0.94
aF0.92
asg30
(lp70
F3.4
aF3.9
aF4.4
aF5.0
aF5.7
aF6.4
aF7.4
aF8.4
aF9.5
aF10.8
aF12.3
assS'BAND_3'
p71
(dp72
g3
I6
sg4
g5
(g9
S'\xd6\xbea\xed\x1bV8@'
p73
tp74
Rp75
sg15
F45.0
sg16
(lp76
F1.0
aF0.9
aF0.9
aF0.8
aF0.8
aF0.8
aF0.8
aF0.8
aF0.8
aF0.8
aF0.7
asg18
g5
(g9
S'\x13\xaeG\xe1z\x14\xee?'
p77
tp78
Rp79
sg22
(lp80
F20.7
aF20.7
aF21.2
aF22.3
aF23.3
aF24.4
aF24.7
aF24.3
aF24.9
aF27.9
aF33.3
asg24
F16.0
sg25
(lp81
F13.2
aF13.1
aF13.6
aF14.5
aF15.3
aF16.2
aF16.0
aF15.0
aF14.5
aF15.7
aF17.8
asg27
F8.2
sg28
(lp82
F0.93
aF0.93
aF0.94
aF0.94
aF0.94
aF0.94
aF0.94
aF0.95
aF0.95
aF0.94
aF0.94
asg30
(lp83
F12.3
aF12.9
aF13.6
aF14.4
aF15.1
aF15.9
aF16.7
aF17.6
aF18.5
aF19.5
aF20.5
assS'BAND_1'
p84
(dp85
g3
I6
sg4
g5
(g9
S'yJ\x90\xa7\x04\xf91@'
p86
tp87
Rp88
sg15
F45.0
sg16
(lp89
F5.3
aF4.8
aF3.9
aF3.1
aF2.4
aF1.4
aF0.9
aF0.8
aF0.6
aF0.3
aF0.2
asg18
g5
(g9
S'MZ\xc5\xa4UL\xea?'
p90
tp91
Rp92
sg22
(lp93
F24.1
aF22.0
aF19.8
aF18.4
aF17.3
aF16.0
aF15.7
aF15.7
aF15.9
aF16.2
aF16.6
asg24
F2.4
sg25
(lp94
F11.8
aF10.8
aF9.7
aF9.2
aF9.0
aF8.8
aF9.0
aF9.2
aF9.7
aF10.2
aF10.7
asg27
F2.3
sg28
(lp95
F0.8
aF0.81
aF0.83
aF0.85
aF0.87
aF0.88
aF0.88
aF0.86
aF0.83
aF0.77
aF0.66
asg30
(lp96
F1.2
aF1.3
aF1.5
aF1.6
aF1.8
aF2.0
aF2.3
aF2.5
aF2.8
aF3.2
aF3.5
ass.